; Function Attrs: mustprogress uwtable
define noundef double @_ZNK8QuantLib20SpreadedSmileSection14volatilityImplEd(ptr noundef nonnull align 8 dereferenceable(104) %this, double noundef %k) unnamed_addr #7 align 2 {
entry:
  %underlyingSection_ = getelementptr inbounds nuw i8, ptr %this, i64 72
  %0 = load ptr, ptr %underlyingSection_, align 8, !tbaa !39
  %cmp.not.i = icmp eq ptr %0, null
  br i1 %cmp.not.i, label %cond.false.i, label %_ZNK5boost10shared_ptrIN8QuantLib12SmileSectionEEptEv.exit, !prof !41

cond.false.i:                                     ; preds = %entry
  tail call void @_ZN5boost16assertion_failedEPKcS1_S1_l(ptr noundef nonnull @.str.4, ptr noundef nonnull @__PRETTY_FUNCTION__._ZNK5boost10shared_ptrIN8QuantLib12SmileSectionEEptEv, ptr noundef nonnull @.str.5, i64 noundef 784)
  %.pre.i = load ptr, ptr %underlyingSection_, align 8, !tbaa !39
  br label %_ZNK5boost10shared_ptrIN8QuantLib12SmileSectionEEptEv.exit

_ZNK5boost10shared_ptrIN8QuantLib12SmileSectionEEptEv.exit: ; preds = %entry, %cond.false.i
  %1 = phi ptr [ %0, %entry ], [ %.pre.i, %cond.false.i ]
  %vtable.i = load ptr, ptr %1, align 8, !tbaa !35
  %vfn.i = getelementptr inbounds i8, ptr %vtable.i, i64 144
  %2 = load ptr, ptr %vfn.i, align 8
  %call.i = tail call noundef double %2(ptr noundef nonnull align 8 dereferenceable(72) %1, double noundef %k)
  %spread_ = getelementptr inbounds nuw i8, ptr %this, i64 88
  %call3 = tail call noundef nonnull align 8 dereferenceable(16) ptr @_ZNK8QuantLib6HandleINS_5QuoteEEptEv(ptr noundef nonnull align 8 dereferenceable(16) %spread_)
  %3 = load ptr, ptr %call3, align 8, !tbaa !55
  %cmp.not.i1 = icmp eq ptr %3, null
  br i1 %cmp.not.i1, label %cond.false.i2, label %_ZNK5boost10shared_ptrIN8QuantLib5QuoteEEptEv.exit, !prof !41

cond.false.i2:                                    ; preds = %_ZNK5boost10shared_ptrIN8QuantLib12SmileSectionEEptEv.exit
  tail call void @_ZN5boost16assertion_failedEPKcS1_S1_l(ptr noundef nonnull @.str.4, ptr noundef nonnull @__PRETTY_FUNCTION__._ZNK5boost10shared_ptrIN8QuantLib5QuoteEEptEv, ptr noundef nonnull @.str.5, i64 noundef 784)
  %.pre.i3 = load ptr, ptr %call3, align 8, !tbaa !55
  br label %_ZNK5boost10shared_ptrIN8QuantLib5QuoteEEptEv.exit

_ZNK5boost10shared_ptrIN8QuantLib5QuoteEEptEv.exit: ; preds = %_ZNK5boost10shared_ptrIN8QuantLib12SmileSectionEEptEv.exit, %cond.false.i2
  %4 = phi ptr [ %3, %_ZNK5boost10shared_ptrIN8QuantLib12SmileSectionEEptEv.exit ], [ %.pre.i3, %cond.false.i2 ]
  %vtable = load ptr, ptr %4, align 8, !tbaa !35
  %vfn = getelementptr inbounds i8, ptr %vtable, i64 16
  %5 = load ptr, ptr %vfn, align 8
  %call5 = tail call noundef double %5(ptr noundef nonnull align 8 dereferenceable(8) %4)
  %add = fadd double %call.i, %call5
  ret double %add
}